target datalayout = "e-m:e-p270:32:32-p271:32:32-p272:64:64-i64:64-i128:128-f80:128-n8:16:32:64-S128"
target triple = "x86_64-pc-linux-gnu"

%struct.dict = type { ptr, [2 x ptr], [2 x i64], i64, i16, [2 x i8], i16, [0 x ptr] }
%struct.dictExpireMetadata = type { %struct.ExpireMeta, ptr, ptr }
%struct.ExpireMeta = type { i32, i16, i16, ptr }

@hashFieldExpireBucketsType = dso_local global { ptr, ptr, i32, [4 x i8] } { ptr @hfieldGetExpireMeta, ptr null, i32 1, [4 x i8] zeroinitializer }, align 8
@mstrFieldKind = dso_local global { ptr, <{ i32, [15 x i32] }> } { ptr @.str, <{ i32, [15 x i32] }> <{ i32 16, [15 x i32] zeroinitializer }> }, align 8

; Function Attrs: inlinehint nounwind uwtable
define internal i32 @mstrGetFlag(ptr noundef %0, i32 noundef %1) #7 {
  %3 = alloca ptr, align 8
  %4 = alloca i32, align 4
  store ptr %0, ptr %3, align 8, !tbaa !33
  store i32 %1, ptr %4, align 4, !tbaa !13
  %5 = load ptr, ptr %3, align 8, !tbaa !33
  %6 = call ptr @mstrFlagsRef(ptr noundef %5)
  %7 = load i16, ptr %6, align 2, !tbaa !96
  %8 = zext i16 %7 to i32
  %9 = load i32, ptr %4, align 4, !tbaa !13
  %10 = shl i32 1, %9
  %11 = and i32 %8, %10
  ret i32 %11
}

; Function Attrs: inlinehint nounwind uwtable
define internal i32 @mstrIsMetaAttached(ptr noundef %0) #7 {
  %2 = alloca ptr, align 8
  store ptr %0, ptr %2, align 8, !tbaa !33
  %3 = load ptr, ptr %2, align 8, !tbaa !33
  %4 = getelementptr inbounds i8, ptr %3, i64 -1
  %5 = load i8, ptr %4, align 1, !tbaa !95
  %6 = sext i8 %5 to i32
  %7 = and i32 %6, 4
  ret i32 %7
}

; Function Attrs: inlinehint nounwind uwtable
define internal i64 @ebGetMetaExpTime(ptr noundef %0) #7 {
  %2 = alloca ptr, align 8
  store ptr %0, ptr %2, align 8, !tbaa !72
  %3 = load ptr, ptr %2, align 8, !tbaa !72
  %4 = getelementptr inbounds nuw %struct.ExpireMeta, ptr %3, i32 0, i32 1
  %5 = load i16, ptr %4, align 4, !tbaa !146
  %6 = zext i16 %5 to i64
  %7 = shl i64 %6, 32
  %8 = load ptr, ptr %2, align 8, !tbaa !72
  %9 = getelementptr inbounds nuw %struct.ExpireMeta, ptr %8, i32 0, i32 0
  %10 = load i32, ptr %9, align 8, !tbaa !147
  %11 = zext i32 %10 to i64
  %12 = or i64 %7, %11
  ret i64 %12
}

; Function Attrs: nounwind uwtable
define dso_local i32 @hfieldIsExpireAttached(ptr noundef %0) #1 {
  %2 = alloca ptr, align 8
  store ptr %0, ptr %2, align 8, !tbaa !33
  %3 = load ptr, ptr %2, align 8, !tbaa !33
  %4 = call i32 @mstrIsMetaAttached(ptr noundef %3)
  %5 = icmp ne i32 %4, 0
  br i1 %5, label %6, label %10

6:                                                ; preds = %1
  %7 = load ptr, ptr %2, align 8, !tbaa !33
  %8 = call i32 @mstrGetFlag(ptr noundef %7, i32 noundef 0)
  %9 = icmp ne i32 %8, 0
  br label %10

10:                                               ; preds = %6, %1
  %11 = phi i1 [ false, %1 ], [ %9, %6 ]
  %12 = zext i1 %11 to i32
  ret i32 %12
}

; Function Attrs: inlinehint nounwind uwtable
define internal void @hfieldFree(ptr noundef %0) #7 {
  %2 = alloca ptr, align 8
  store ptr %0, ptr %2, align 8, !tbaa !33
  %3 = load ptr, ptr %2, align 8, !tbaa !33
  call void @mstrFree(ptr noundef @mstrFieldKind, ptr noundef %3)
  ret void
}

; Function Attrs: nounwind uwtable
define dso_local i64 @hfieldGetExpireTime(ptr noundef %0) #1 {
  %2 = alloca i64, align 8
  %3 = alloca ptr, align 8
  %4 = alloca ptr, align 8
  %5 = alloca i32, align 4
  store ptr %0, ptr %3, align 8, !tbaa !33
  %6 = load ptr, ptr %3, align 8, !tbaa !33
  %7 = call i32 @hfieldIsExpireAttached(ptr noundef %6)
  %8 = icmp ne i32 %7, 0
  br i1 %8, label %10, label %9

9:                                                ; preds = %1
  store i64 281474976710656, ptr %2, align 8
  br label %25

10:                                               ; preds = %1
  call void @llvm.lifetime.start.p0(i64 8, ptr %4) #12
  %11 = load ptr, ptr %3, align 8, !tbaa !33
  %12 = call ptr @mstrMetaRef(ptr noundef %11, ptr noundef @mstrFieldKind, i32 noundef 0)
  store ptr %12, ptr %4, align 8, !tbaa !72
  %13 = load ptr, ptr %4, align 8, !tbaa !72
  %14 = getelementptr inbounds nuw %struct.ExpireMeta, ptr %13, i32 0, i32 2
  %15 = load i16, ptr %14, align 2
  %16 = lshr i16 %15, 8
  %17 = and i16 %16, 1
  %18 = zext i16 %17 to i32
  %19 = icmp ne i32 %18, 0
  br i1 %19, label %20, label %21

20:                                               ; preds = %10
  store i64 281474976710656, ptr %2, align 8
  store i32 1, ptr %5, align 4
  br label %24

21:                                               ; preds = %10
  %22 = load ptr, ptr %4, align 8, !tbaa !72
  %23 = call i64 @ebGetMetaExpTime(ptr noundef %22)
  store i64 %23, ptr %2, align 8
  store i32 1, ptr %5, align 4
  br label %24

24:                                               ; preds = %21, %20
  call void @llvm.lifetime.end.p0(i64 8, ptr %4) #12
  br label %25

25:                                               ; preds = %24, %9
  %26 = load i64, ptr %2, align 8
  ret i64 %26
}

; Function Attrs: nounwind uwtable
define internal void @dictHfieldDestructor(ptr noundef %0, ptr noundef %1) #1 {
  %3 = alloca ptr, align 8
  %4 = alloca ptr, align 8
  %5 = alloca ptr, align 8
  store ptr %0, ptr %3, align 8, !tbaa !5
  store ptr %1, ptr %4, align 8, !tbaa !10
  %6 = load ptr, ptr %4, align 8, !tbaa !10
  %7 = call i64 @hfieldGetExpireTime(ptr noundef %6)
  %8 = icmp ne i64 %7, 281474976710656
  br i1 %8, label %9, label %16

9:                                                ; preds = %2
  call void @llvm.lifetime.start.p0(i64 8, ptr %5) #12
  %10 = load ptr, ptr %3, align 8, !tbaa !5
  %11 = getelementptr inbounds nuw %struct.dict, ptr %10, i32 0, i32 7
  store ptr %11, ptr %5, align 8, !tbaa !11
  %12 = load ptr, ptr %5, align 8, !tbaa !11
  %13 = getelementptr inbounds nuw %struct.dictExpireMetadata, ptr %12, i32 0, i32 1
  %14 = load ptr, ptr %4, align 8, !tbaa !10
  %15 = call i32 @ebRemove(ptr noundef %13, ptr noundef @hashFieldExpireBucketsType, ptr noundef %14)
  call void @llvm.lifetime.end.p0(i64 8, ptr %5) #12
  br label %16

16:                                               ; preds = %9, %2
  %17 = load ptr, ptr %4, align 8, !tbaa !10
  call void @hfieldFree(ptr noundef %17)
  ret void
}