; Function Attrs: nounwind uwtable
define internal void @dictHfieldDestructor(ptr noundef %0, ptr noundef %1) #1 {
  %3 = getelementptr i8, ptr %1, i64 -1
  %.val.i.i = load i8, ptr %3, align 1, !tbaa !5
  %4 = and i8 %.val.i.i, 4
  %.not.i.i = icmp eq i8 %4, 0
  br i1 %.not.i.i, label %hfieldGetExpireTime.exit.thread, label %hfieldIsExpireAttached.exit.i

hfieldIsExpireAttached.exit.i:                    ; preds = %2
  %5 = tail call ptr @mstrFlagsRef(ptr noundef nonnull %1) #16
  %6 = load i16, ptr %5, align 2, !tbaa !8
  %7 = and i16 %6, 1
  %.not.i = icmp eq i16 %7, 0
  br i1 %.not.i, label %hfieldGetExpireTime.exit.thread, label %8

8:                                                ; preds = %hfieldIsExpireAttached.exit.i
  %9 = tail call ptr @mstrMetaRef(ptr noundef nonnull %1, ptr noundef nonnull @mstrFieldKind, i32 noundef 0) #16
  %10 = getelementptr inbounds nuw i8, ptr %9, i64 6
  %11 = load i16, ptr %10, align 2
  %12 = and i16 %11, 256
  %.not4.i = icmp eq i16 %12, 0
  br i1 %.not4.i, label %hfieldGetExpireTime.exit, label %hfieldGetExpireTime.exit.thread

hfieldGetExpireTime.exit:                         ; preds = %8
  %13 = getelementptr inbounds nuw i8, ptr %0, i64 72
  %14 = tail call i32 @ebRemove(ptr noundef nonnull %13, ptr noundef nonnull @hashFieldExpireBucketsType, ptr noundef nonnull %1) #16
  br label %hfieldGetExpireTime.exit.thread

hfieldGetExpireTime.exit.thread:                  ; preds = %2, %8, %hfieldIsExpireAttached.exit.i, %hfieldGetExpireTime.exit
  tail call void @mstrFree(ptr noundef nonnull @mstrFieldKind, ptr noundef nonnull %1) #16
  ret void
}